target datalayout = "e-m:e-p270:32:32-p271:32:32-p272:64:64-i64:64-i128:128-f80:128-n8:16:32:64-S128"
target triple = "x86_64-pc-linux-gnu"

@d_table_leap = internal global [13 x i32] [i32 0, i32 0, i32 31, i32 60, i32 91, i32 121, i32 152, i32 182, i32 213, i32 244, i32 274, i32 305, i32 335], align 16
@d_table_common = internal global [13 x i32] [i32 0, i32 0, i32 31, i32 59, i32 90, i32 120, i32 151, i32 181, i32 212, i32 243, i32 273, i32 304, i32 334], align 16

; Function Attrs: nounwind uwtable
define hidden i64 @timelib_day_of_year(i64 noundef %0, i64 noundef %1, i64 noundef %2) #0 {
  %4 = alloca i64, align 8
  %5 = alloca i64, align 8
  %6 = alloca i64, align 8
  store i64 %0, ptr %4, align 8, !tbaa !4
  store i64 %1, ptr %5, align 8, !tbaa !4
  store i64 %2, ptr %6, align 8, !tbaa !4
  %7 = load i64, ptr %4, align 8, !tbaa !4
  %8 = srem i64 %7, 4
  %9 = icmp eq i64 %8, 0
  br i1 %9, label %10, label %22

10:                                               ; preds = %3
  %11 = load i64, ptr %4, align 8, !tbaa !4
  %12 = srem i64 %11, 100
  %13 = icmp ne i64 %12, 0
  br i1 %13, label %18, label %14

14:                                               ; preds = %10
  %15 = load i64, ptr %4, align 8, !tbaa !4
  %16 = srem i64 %15, 400
  %17 = icmp eq i64 %16, 0
  br i1 %17, label %18, label %22

18:                                               ; preds = %14, %10
  %19 = load i64, ptr %5, align 8, !tbaa !4
  %20 = getelementptr inbounds [13 x i32], ptr @d_table_leap, i64 0, i64 %19
  %21 = load i32, ptr %20, align 4, !tbaa !8
  br label %26

22:                                               ; preds = %14, %3
  %23 = load i64, ptr %5, align 8, !tbaa !4
  %24 = getelementptr inbounds [13 x i32], ptr @d_table_common, i64 0, i64 %23
  %25 = load i32, ptr %24, align 4, !tbaa !8
  br label %26

26:                                               ; preds = %22, %18
  %27 = phi i32 [ %21, %18 ], [ %25, %22 ]
  %28 = sext i32 %27 to i64
  %29 = load i64, ptr %6, align 8, !tbaa !4
  %30 = add i64 %28, %29
  %31 = sub i64 %30, 1
  ret i64 %31
}