; Function Attrs: mustprogress nofree norecurse nosync nounwind willreturn memory(none) uwtable
define hidden i64 @timelib_day_of_year(i64 noundef %0, i64 noundef %1, i64 noundef %2) local_unnamed_addr #0 {
  %4 = and i64 %0, 3
  %5 = icmp eq i64 %4, 0
  br i1 %5, label %6, label %10

6:                                                ; preds = %3
  %7 = srem i64 %0, 100
  %.not = icmp ne i64 %7, 0
  %8 = srem i64 %0, 400
  %9 = icmp eq i64 %8, 0
  %or.cond = or i1 %.not, %9
  br i1 %or.cond, label %11, label %10

10:                                               ; preds = %6, %3
  br label %11

11:                                               ; preds = %6, %10
  %d_table_leap.pn = phi ptr [ @d_table_common, %10 ], [ @d_table_leap, %6 ]
  %.in = getelementptr inbounds [13 x i32], ptr %d_table_leap.pn, i64 0, i64 %1
  %12 = load i32, ptr %.in, align 4, !tbaa !4
  %13 = sext i32 %12 to i64
  %14 = add i64 %2, -1
  %15 = add i64 %14, %13
  ret i64 %15
}